(dp1
S'failed'
p2
(lp3
sS'source_names'
p4
(lp5
S'.'
asS'ids'
p6
(dp7
I1
(S'/Users/samfonseca/dev/projects/python/admin-automation/tests/test_login.py'
S'tests.test_login'
S'LoginTest.test_login_with_valid_credentials'
tp8
ss.